Certificate:
    Data:
        Version: 3 (0x2)
        Serial Number: 1 (0x1)
    Signature Algorithm: sha1WithRSAEncryption
        Issuer: C=US, ST=California, L=Roseville, O=HP, OU=PDE, CN=cdkdev.org
        Validity
            Not Before: Sep  3 03:07:05 2013 GMT
            Not After : Sep  3 03:07:05 2014 GMT
        Subject: C=US, ST=California, O=HP, OU=PDE, CN=cdkdev.org
        Subject Public Key Info:
            Public Key Algorithm: rsaEncryption
                Public-Key: (4096 bit)
                Modulus:
                    00:b8:5b:9e:d4:96:cc:3d:57:48:59:87:08:48:38:
                    c7:98:62:c0:7b:b6:c4:19:2e:5f:ce:3f:61:8b:2f:
                    60:ba:f2:a7:11:f4:70:c3:39:69:4f:7a:f7:de:1b:
                    76:75:43:3b:1e:b8:4a:68:84:5a:ad:96:c4:1b:b2:
                    23:e7:e2:3f:1a:1b:4b:62:0c:85:fb:9c:58:54:ba:
                    da:83:c5:7a:1d:ad:29:26:2b:b0:2a:3e:b9:ed:52:
                    74:d4:04:4e:cc:9a:bb:ec:f8:32:14:4c:0d:59:fc:
                    f0:f7:61:43:c2:f5:15:0f:bb:96:13:b6:60:2a:2a:
                    94:b7:00:4f:73:2c:eb:80:ac:28:1a:c0:51:6a:52:
                    55:b5:64:cb:7c:0c:e0:8e:67:5d:8d:50:0e:a7:16:
                    42:b9:4b:1f:3e:8f:32:c7:87:4f:2a:a3:e1:44:45:
                    0a:49:63:10:d1:ae:5d:15:ae:11:dc:5d:89:66:dc:
                    12:83:67:ee:0e:09:b6:f1:bc:3e:9a:e1:0a:4d:a4:
                    21:a1:06:cd:98:f2:db:b5:25:3a:b0:11:3d:8c:75:
                    8f:34:67:26:3f:f9:1f:5b:19:81:6f:fa:76:9f:0a:
                    07:9b:98:eb:3c:93:77:e7:60:81:d4:f9:6c:fb:d4:
                    56:6f:da:99:07:ea:23:72:f4:7c:18:13:1d:a6:4d:
                    c0:8d:59:34:c6:14:67:14:67:b1:85:7e:65:51:03:
                    b4:a2:f3:a2:45:91:a6:46:b1:00:81:34:80:1e:7e:
                    a2:a2:a8:60:b7:de:69:25:11:eb:b1:c0:4d:86:ab:
                    71:7a:dd:5e:65:c1:2e:59:11:1a:a8:cb:20:23:2a:
                    be:05:dc:8a:57:9d:b1:1e:50:38:39:26:77:c7:c6:
                    fd:43:1d:54:1d:9d:22:4b:9a:a8:ce:19:b8:8f:f9:
                    dc:a1:7e:e9:96:10:80:42:92:b9:b6:16:ff:e2:a4:
                    2b:84:f6:ef:33:a9:bc:99:d6:5e:42:00:f4:2d:d7:
                    43:0a:49:6a:ec:bd:b7:0e:20:ce:0c:71:dc:5a:83:
                    34:05:2a:0e:ea:13:d7:da:73:79:25:aa:59:79:cb:
                    18:1c:29:71:cc:50:f1:81:98:ac:69:a8:1d:7c:a9:
                    c5:9f:b1:71:bd:9f:c2:7a:86:8d:22:de:a9:aa:30:
                    84:72:52:e6:06:65:43:de:06:6e:28:b0:49:73:b7:
                    cf:6a:ab:d5:52:00:8e:c6:82:5e:ec:f3:29:bf:23:
                    7d:36:9c:87:7c:a2:24:8b:16:e7:02:4d:b5:05:eb:
                    d6:2f:15:d2:6f:29:ab:ab:67:be:0c:46:0e:bd:f3:
                    e9:1b:36:91:b5:3e:9f:fd:e3:8c:c0:4d:6b:ae:2e:
                    cf:46:1b
                Exponent: 65537 (0x10001)
        X509v3 extensions:
            X509v3 Subject Key Identifier: 
                F9:46:07:CF:76:51:8D:14:8C:B7:96:94:B9:D6:06:35:76:59:FB:0A
            X509v3 Authority Key Identifier: 
                keyid:23:61:63:02:2E:86:F6:0C:50:1E:E2:31:84:DA:2D:96:26:F6:1B:5E

            X509v3 Basic Constraints: 
                CA:TRUE
    Signature Algorithm: sha1WithRSAEncryption
         12:9c:5e:04:e7:75:bb:ec:94:4b:08:0e:9a:16:77:3d:07:a5:
         e4:82:02:5a:88:b1:f0:42:f9:0e:44:71:cd:6b:e2:7c:4c:59:
         72:87:32:47:35:77:8f:4e:e7:ec:ad:d5:7a:b5:6d:52:64:71:
         5b:4a:7d:7b:29:5a:53:4f:3c:1c:1f:3f:c0:90:00:4a:ba:ad:
         5a:57:46:19:27:c8:fa:a0:8c:b3:5d:d7:c5:e8:8e:f6:3a:0e:
         84:ef:b0:8c:0b:25:8e:9f:03:2e:6a:d4:3d:27:79:66:10:4d:
         fb:6e:78:ea:65:88:4f:4b:d6:32:e3:c8:78:5c:0f:5b:ef:d0:
         c7:7e:91:fa:68:e8:27:b8:68:eb:a2:23:a9:1a:43:de:cc:c2:
         ce:31:c8:a6:9a:20:d8:bd:cb:80:43:94:9a:92:a8:fc:7b:67:
         25:46:0a:b0:a3:2e:f7:bc:15:77:b1:75:21:4c:36:a9:ad:39:
         40:dd:c4:9e:d7:bf:9d:96:53:6b:93:ef:eb:65:0a:ad:45:e7:
         e5:e7:c2:96:23:ff:10:7a:6c:29:55:6f:f9:78:8d:fc:e8:0e:
         a0:eb:8b:c3:0e:ed:89:92:e4:10:b3:46:2e:b8:96:06:6e:9e:
         cc:f2:42:16:a7:12:18:6b:5f:37:6f:1d:e3:83:48:c9:85:24:
         97:45:9a:d3:c4:e9:43:e6:6f:7f:7a:5d:d7:b5:40:cd:27:8a:
         d8:4d:00:12:86:2e:9c:e2:41:3f:a9:97:20:f8:c7:f1:b5:0c:
         19:0d:2c:84:29:ed:f5:91:22:49:74:0b:23:92:a8:e2:93:81:
         4f:c3:08:47:64:d2:d0:c7:9b:f7:31:82:4d:7e:f1:7d:43:f3:
         29:6c:36:32:86:a3:2e:f3:8f:a3:cd:53:8c:2d:3b:23:b7:25:
         49:7c:4f:c7:8c:c6:48:36:23:0f:1d:ef:00:55:b3:32:6c:98:
         31:d2:49:da:2c:ac:56:a1:4b:8d:37:9c:2e:8d:6e:22:72:d7:
         02:0c:30:42:28:6b:5f:18:c2:18:2a:15:25:a9:91:89:14:43:
         85:bf:a8:28:e8:cd:78:0a:4f:8a:13:a9:5c:4f:87:6f:f0:1e:
         69:b4:9c:2d:23:e1:4f:a2:26:68:8f:bf:de:2e:33:f7:09:3c:
         40:e0:60:90:29:27:69:2c:3e:04:3f:35:48:ef:54:c5:e3:c0:
         06:80:16:8c:c2:96:19:64:61:a6:f5:12:95:91:d4:b7:32:cb:
         05:bf:a0:08:52:30:1f:64:10:d4:2b:04:b0:ff:0f:2e:be:3b:
         49:a8:dc:a3:31:90:64:6b:56:70:8f:3c:a0:07:d3:98:99:2d:
         68:76:32:ae:e2:ac:5d:f9
-----BEGIN CERTIFICATE-----
MIIFgzCCA2ugAwIBAgIBATANBgkqhkiG9w0BAQUFADBmMQswCQYDVQQGEwJVUzET
MBEGA1UECAwKQ2FsaWZvcm5pYTESMBAGA1UEBwwJUm9zZXZpbGxlMQswCQYDVQQK
DAJIUDEMMAoGA1UECwwDUERFMRMwEQYDVQQDDApjZGtkZXYub3JnMB4XDTEzMDkw
MzAzMDcwNVoXDTE0MDkwMzAzMDcwNVowUjELMAkGA1UEBhMCVVMxEzARBgNVBAgM
CkNhbGlmb3JuaWExCzAJBgNVBAoMAkhQMQwwCgYDVQQLDANQREUxEzARBgNVBAMM
CmNka2Rldi5vcmcwggIiMA0GCSqGSIb3DQEBAQUAA4ICDwAwggIKAoICAQC4W57U
lsw9V0hZhwhIOMeYYsB7tsQZLl/OP2GLL2C68qcR9HDDOWlPevfeG3Z1QzseuEpo
hFqtlsQbsiPn4j8aG0tiDIX7nFhUutqDxXodrSkmK7AqPrntUnTUBE7Mmrvs+DIU
TA1Z/PD3YUPC9RUPu5YTtmAqKpS3AE9zLOuArCgawFFqUlW1ZMt8DOCOZ12NUA6n
FkK5Sx8+jzLHh08qo+FERQpJYxDRrl0VrhHcXYlm3BKDZ+4OCbbxvD6a4QpNpCGh
Bs2Y8tu1JTqwET2MdY80ZyY/+R9bGYFv+nafCgebmOs8k3fnYIHU+Wz71FZv2pkH
6iNy9HwYEx2mTcCNWTTGFGcUZ7GFfmVRA7Si86JFkaZGsQCBNIAefqKiqGC33mkl
EeuxwE2Gq3F63V5lwS5ZERqoyyAjKr4F3IpXnbEeUDg5JnfHxv1DHVQdnSJLmqjO
GbiP+dyhfumWEIBCkrm2Fv/ipCuE9u8zqbyZ1l5CAPQt10MKSWrsvbcOIM4Mcdxa
gzQFKg7qE9fac3klqll5yxgcKXHMUPGBmKxpqB18qcWfsXG9n8J6ho0i3qmqMIRy
UuYGZUPeBm4osElzt89qq9VSAI7Ggl7s8ym/I302nId8oiSLFucCTbUF69YvFdJv
KaurZ74MRg698+kbNpG1Pp/944zATWuuLs9GGwIDAQABo1AwTjAdBgNVHQ4EFgQU
+UYHz3ZRjRSMt5aUudYGNXZZ+wowHwYDVR0jBBgwFoAUI2FjAi6G9gxQHuIxhNot
lib2G14wDAYDVR0TBAUwAwEB/zANBgkqhkiG9w0BAQUFAAOCAgEAEpxeBOd1u+yU
SwgOmhZ3PQel5IICWoix8EL5DkRxzWvifExZcocyRzV3j07n7K3VerVtUmRxW0p9
eylaU088HB8/wJAASrqtWldGGSfI+qCMs13XxeiO9joOhO+wjAsljp8DLmrUPSd5
ZhBN+2546mWIT0vWMuPIeFwPW+/Qx36R+mjoJ7ho66IjqRpD3szCzjHIppog2L3L
gEOUmpKo/HtnJUYKsKMu97wVd7F1IUw2qa05QN3Ente/nZZTa5Pv62UKrUXn5efC
liP/EHpsKVVv+XiN/OgOoOuLww7tiZLkELNGLriWBm6ezPJCFqcSGGtfN28d44NI
yYUkl0Wa08TpQ+Zvf3pd17VAzSeK2E0AEoYunOJBP6mXIPjH8bUMGQ0shCnt9ZEi
SXQLI5Ko4pOBT8MIR2TS0Meb9zGCTX7xfUPzKWw2MoajLvOPo81TjC07I7clSXxP
x4zGSDYjDx3vAFWzMmyYMdJJ2iysVqFLjTecLo1uInLXAgwwQihrXxjCGCoVJamR
iRRDhb+oKOjNeApPihOpXE+Hb/AeabScLSPhT6ImaI+/3i4z9wk8QOBgkCknaSw+
BD81SO9UxePABoAWjMKWGWRhpvUSlZHUtzLLBb+gCFIwH2QQ1CsEsP8PLr47Sajc
ozGQZGtWcI88oAfTmJktaHYyruKsXfk=
-----END CERTIFICATE-----
-----BEGIN CERTIFICATE-----
MIIFnzCCA4egAwIBAgIJAP5GiSYoj+KKMA0GCSqGSIb3DQEBBQUAMGYxCzAJBgNV
BAYTAlVTMRMwEQYDVQQIDApDYWxpZm9ybmlhMRIwEAYDVQQHDAlSb3NldmlsbGUx
CzAJBgNVBAoMAkhQMQwwCgYDVQQLDANQREUxEzARBgNVBAMMCmNka2Rldi5vcmcw
HhcNMTMwOTAzMDI1ODMwWhcNMTgwOTAyMDI1ODMwWjBmMQswCQYDVQQGEwJVUzET
MBEGA1UECAwKQ2FsaWZvcm5pYTESMBAGA1UEBwwJUm9zZXZpbGxlMQswCQYDVQQK
DAJIUDEMMAoGA1UECwwDUERFMRMwEQYDVQQDDApjZGtkZXYub3JnMIICIjANBgkq
hkiG9w0BAQEFAAOCAg8AMIICCgKCAgEAxDdgxHFL23ILAgUH6QFegtR6Q8NGAxEn
ihNIg+dd+5TX45EAOiDMCWVPbBdAhTURp/PDfxG7guoWj11YaV/zKQsPnVqyMwYA
30J4nzKUFnefqaN63brA8cMFxVvnhXtP9xO6FzapQJGmgN0azQiMk+jKCKR5YUny
JQXAHbDOmhWtZBBj8omJLkFnCJiCxwr0ZA1uxstHZudDtng2wELxrZ1kpcI4Dw1y
Ps/UVCbzJFe/GVB+YtMoHnH8K53iESqA3HbCyysDaPL+0RfOUlB77qzog/K6zF5/
kudkyJOuB2cflykb31kafmVbMDalwro58FLOMmJHLcd2cQJH/0kWxQ5zLsL4jUHI
CzIB509lk0I7FAgsnk53h6WoLZvbGSud/SMXMI6x4fZ3B9NQh2Jz/OtGRBhVKovP
/g4UVy7haUaxScWsyqmu58nvpNY/mIOFZ49i2GrwPJHq3RlxsHVi3fyPn0sYJWSR
PiiH42e8DHtxL5u2jdOHJkY31IPjMAiK+cmi6gEW1JPLZ/Yf/hNFGv5IFCMqlwyB
bBXanKKYsoLTB6AeoGEUwbki3IwMb4Yh5+pKjhiTjrbm+aJMdJoxwiSWempuhZk3
8SVwqG6w3AIanGIaYFP/y2mjf805fQhR7HGQKmR9Nn88W2N1GJSORX9Px4llgmMr
d2Kuck/XJoMCAwEAAaNQME4wHQYDVR0OBBYEFCNhYwIuhvYMUB7iMYTaLZYm9hte
MB8GA1UdIwQYMBaAFCNhYwIuhvYMUB7iMYTaLZYm9hteMAwGA1UdEwQFMAMBAf8w
DQYJKoZIhvcNAQEFBQADggIBABKtBmrvDA/IkIzpQzh91tT7ZPSA3++v4m93min4
FWUkJO6W28UDjoO6nl1atCeQ6snVseGEWaAH8KVc4GJmCAdOEK9aXRYZ1QPmPRrL
ucsQfdQibMMY13pepBFPjB121+mb8uUYZC/Tdocljq9ZfP+5Fc+3jfpxA+QC+LLS
D3HBLIejSpMtUDut3qABDFobetny9Do8fTYlq5QrJhH/4HcRGWEyGv4ogu3507vB
c2IZmpEHckSMtcX4VnY5/wqTDoTDfzN+lGRHZMuNLU9D7a/LOxGrgXSwpwmRbFJP
fAM23NlwiGzM5Eae0K21T3dG/HWMNWAbPvMKGdchBRHbQwuSfJAQiACz6ERLGBy7
csAeTEUKCkzKhm9wT7tQjpIbPsoB+mXnin1WPzBJx4hsRP9HRNMWFQsMd2iQJNgi
ROto36FRXE6KFDuLfgNFsLG6ioEm9jm4SXHbC7hqohJ2EM/MtV18Rb4XeDDtxK51
R4APh9R+Z4+4APRM2+sH2fRwACqwulEyCk5zusf+WUcKuoHtWD0smuxov72ykDy8
+ehA4rQ+a1tI7Ide7tPiJp3q0h+9tvOjeUI4UnIIqMGIAbPFTFlFenCWtAqtcpfX
8hEVRx+MnzAn3fdbxisFGgTxsN46ccoKZGrh+5SsHRyWd6raFjKwU7epJvDZZbJ3
yt1U
-----END CERTIFICATE-----
